
out.elf:     file format elf32-littlearm


Disassembly of section .isr_vector:

08000000 <g_pfnVectors>:
 8000000:	20020000 	andcs	r0, r2, r0
 8000004:	0800038d 	stmdaeq	r0, {r0, r2, r3, r7, r8, r9}
	...
 8000058:	0800025d 	stmdaeq	r0, {r0, r2, r3, r4, r6, r9}
	...

Disassembly of section .text:

08000188 <clk>:
clk():
G:\OneDrive - knu.ac.kr\PROJECT\2018-09-08_JSKWON\09_lecture\2021-04-28_Embedded_System_Design\2_SRC\01_blink_int/main.c:4
#include "STM32FDiscovery.h"
	
void clk(void)
{
 8000188:	b480      	push	{r7}
 800018a:	af00      	add	r7, sp, #0
G:\OneDrive - knu.ac.kr\PROJECT\2018-09-08_JSKWON\09_lecture\2021-04-28_Embedded_System_Design\2_SRC\01_blink_int/main.c:5
	RCC_CR = 0;
 800018c:	4b31      	ldr	r3, [pc, #196]	; (8000254 <clk+0xcc>)
 800018e:	2200      	movs	r2, #0
 8000190:	601a      	str	r2, [r3, #0]
G:\OneDrive - knu.ac.kr\PROJECT\2018-09-08_JSKWON\09_lecture\2021-04-28_Embedded_System_Design\2_SRC\01_blink_int/main.c:6
	RCC_PLLCFGR = 0;
 8000192:	4b30      	ldr	r3, [pc, #192]	; (8000254 <clk+0xcc>)
 8000194:	2200      	movs	r2, #0
 8000196:	605a      	str	r2, [r3, #4]
G:\OneDrive - knu.ac.kr\PROJECT\2018-09-08_JSKWON\09_lecture\2021-04-28_Embedded_System_Design\2_SRC\01_blink_int/main.c:7
	RCC_CFGR = 0;
 8000198:	4b2e      	ldr	r3, [pc, #184]	; (8000254 <clk+0xcc>)
 800019a:	2200      	movs	r2, #0
 800019c:	609a      	str	r2, [r3, #8]
G:\OneDrive - knu.ac.kr\PROJECT\2018-09-08_JSKWON\09_lecture\2021-04-28_Embedded_System_Design\2_SRC\01_blink_int/main.c:9
		
	RCC_CR |= (1<<16); // HSE set
 800019e:	4b2d      	ldr	r3, [pc, #180]	; (8000254 <clk+0xcc>)
 80001a0:	681b      	ldr	r3, [r3, #0]
 80001a2:	4a2c      	ldr	r2, [pc, #176]	; (8000254 <clk+0xcc>)
 80001a4:	f443 3380 	orr.w	r3, r3, #65536	; 0x10000
 80001a8:	6013      	str	r3, [r2, #0]
G:\OneDrive - knu.ac.kr\PROJECT\2018-09-08_JSKWON\09_lecture\2021-04-28_Embedded_System_Design\2_SRC\01_blink_int/main.c:10
	while( (RCC_CR & ( 1<<17) ) == 0 ); // wait until HSE ready
 80001aa:	bf00      	nop
G:\OneDrive - knu.ac.kr\PROJECT\2018-09-08_JSKWON\09_lecture\2021-04-28_Embedded_System_Design\2_SRC\01_blink_int/main.c:10 (discriminator 1)
 80001ac:	4b29      	ldr	r3, [pc, #164]	; (8000254 <clk+0xcc>)
 80001ae:	681b      	ldr	r3, [r3, #0]
 80001b0:	f403 3300 	and.w	r3, r3, #131072	; 0x20000
 80001b4:	2b00      	cmp	r3, #0
 80001b6:	d0f9      	beq.n	80001ac <clk+0x24>
G:\OneDrive - knu.ac.kr\PROJECT\2018-09-08_JSKWON\09_lecture\2021-04-28_Embedded_System_Design\2_SRC\01_blink_int/main.c:12
	
	RCC_PLLCFGR |= 8;//0x00000008; // set PLLM
 80001b8:	4b26      	ldr	r3, [pc, #152]	; (8000254 <clk+0xcc>)
 80001ba:	685b      	ldr	r3, [r3, #4]
 80001bc:	4a25      	ldr	r2, [pc, #148]	; (8000254 <clk+0xcc>)
 80001be:	f043 0308 	orr.w	r3, r3, #8
 80001c2:	6053      	str	r3, [r2, #4]
G:\OneDrive - knu.ac.kr\PROJECT\2018-09-08_JSKWON\09_lecture\2021-04-28_Embedded_System_Design\2_SRC\01_blink_int/main.c:13
	RCC_PLLCFGR |= (336<<6);//|= (336<<6); // 		set PLLN
 80001c4:	4b23      	ldr	r3, [pc, #140]	; (8000254 <clk+0xcc>)
 80001c6:	685b      	ldr	r3, [r3, #4]
 80001c8:	4a22      	ldr	r2, [pc, #136]	; (8000254 <clk+0xcc>)
 80001ca:	f443 43a8 	orr.w	r3, r3, #21504	; 0x5400
 80001ce:	6053      	str	r3, [r2, #4]
G:\OneDrive - knu.ac.kr\PROJECT\2018-09-08_JSKWON\09_lecture\2021-04-28_Embedded_System_Design\2_SRC\01_blink_int/main.c:14
	RCC_PLLCFGR |= (0<<16); // set PLLP
 80001d0:	4b20      	ldr	r3, [pc, #128]	; (8000254 <clk+0xcc>)
 80001d2:	4a20      	ldr	r2, [pc, #128]	; (8000254 <clk+0xcc>)
 80001d4:	685b      	ldr	r3, [r3, #4]
 80001d6:	6053      	str	r3, [r2, #4]
G:\OneDrive - knu.ac.kr\PROJECT\2018-09-08_JSKWON\09_lecture\2021-04-28_Embedded_System_Design\2_SRC\01_blink_int/main.c:15
	RCC_PLLCFGR |= (7<<24);//0x07000000; // set PLLQ
 80001d8:	4b1e      	ldr	r3, [pc, #120]	; (8000254 <clk+0xcc>)
 80001da:	685b      	ldr	r3, [r3, #4]
 80001dc:	4a1d      	ldr	r2, [pc, #116]	; (8000254 <clk+0xcc>)
 80001de:	f043 63e0 	orr.w	r3, r3, #117440512	; 0x7000000
 80001e2:	6053      	str	r3, [r2, #4]
G:\OneDrive - knu.ac.kr\PROJECT\2018-09-08_JSKWON\09_lecture\2021-04-28_Embedded_System_Design\2_SRC\01_blink_int/main.c:17

	RCC_PLLCFGR |= (1<<22); // set PLL src HSE
 80001e4:	4b1b      	ldr	r3, [pc, #108]	; (8000254 <clk+0xcc>)
 80001e6:	685b      	ldr	r3, [r3, #4]
 80001e8:	4a1a      	ldr	r2, [pc, #104]	; (8000254 <clk+0xcc>)
 80001ea:	f443 0380 	orr.w	r3, r3, #4194304	; 0x400000
 80001ee:	6053      	str	r3, [r2, #4]
G:\OneDrive - knu.ac.kr\PROJECT\2018-09-08_JSKWON\09_lecture\2021-04-28_Embedded_System_Design\2_SRC\01_blink_int/main.c:19

	RCC_CR |= (1<<24); // PLL ON
 80001f0:	4b18      	ldr	r3, [pc, #96]	; (8000254 <clk+0xcc>)
 80001f2:	681b      	ldr	r3, [r3, #0]
 80001f4:	4a17      	ldr	r2, [pc, #92]	; (8000254 <clk+0xcc>)
 80001f6:	f043 7380 	orr.w	r3, r3, #16777216	; 0x1000000
 80001fa:	6013      	str	r3, [r2, #0]
G:\OneDrive - knu.ac.kr\PROJECT\2018-09-08_JSKWON\09_lecture\2021-04-28_Embedded_System_Design\2_SRC\01_blink_int/main.c:20
	while( (RCC_CR & (1<<25)) == 0); // wait until PLL ready
 80001fc:	bf00      	nop
G:\OneDrive - knu.ac.kr\PROJECT\2018-09-08_JSKWON\09_lecture\2021-04-28_Embedded_System_Design\2_SRC\01_blink_int/main.c:20 (discriminator 1)
 80001fe:	4b15      	ldr	r3, [pc, #84]	; (8000254 <clk+0xcc>)
 8000200:	681b      	ldr	r3, [r3, #0]
 8000202:	f003 7300 	and.w	r3, r3, #33554432	; 0x2000000
 8000206:	2b00      	cmp	r3, #0
 8000208:	d0f9      	beq.n	80001fe <clk+0x76>
G:\OneDrive - knu.ac.kr\PROJECT\2018-09-08_JSKWON\09_lecture\2021-04-28_Embedded_System_Design\2_SRC\01_blink_int/main.c:22
	
	FLASH_ACR |= 5;
 800020a:	4b13      	ldr	r3, [pc, #76]	; (8000258 <clk+0xd0>)
 800020c:	681b      	ldr	r3, [r3, #0]
 800020e:	4a12      	ldr	r2, [pc, #72]	; (8000258 <clk+0xd0>)
 8000210:	f043 0305 	orr.w	r3, r3, #5
 8000214:	6013      	str	r3, [r2, #0]
G:\OneDrive - knu.ac.kr\PROJECT\2018-09-08_JSKWON\09_lecture\2021-04-28_Embedded_System_Design\2_SRC\01_blink_int/main.c:23
	RCC_CFGR |= 2; // set PLL to system clock
 8000216:	4b0f      	ldr	r3, [pc, #60]	; (8000254 <clk+0xcc>)
 8000218:	689b      	ldr	r3, [r3, #8]
 800021a:	4a0e      	ldr	r2, [pc, #56]	; (8000254 <clk+0xcc>)
 800021c:	f043 0302 	orr.w	r3, r3, #2
 8000220:	6093      	str	r3, [r2, #8]
G:\OneDrive - knu.ac.kr\PROJECT\2018-09-08_JSKWON\09_lecture\2021-04-28_Embedded_System_Design\2_SRC\01_blink_int/main.c:25
	
	while( (RCC_CFGR & (12) ) != 8); // wait until PLL ready
 8000222:	bf00      	nop
G:\OneDrive - knu.ac.kr\PROJECT\2018-09-08_JSKWON\09_lecture\2021-04-28_Embedded_System_Design\2_SRC\01_blink_int/main.c:25 (discriminator 1)
 8000224:	4b0b      	ldr	r3, [pc, #44]	; (8000254 <clk+0xcc>)
 8000226:	689b      	ldr	r3, [r3, #8]
 8000228:	f003 030c 	and.w	r3, r3, #12
 800022c:	2b08      	cmp	r3, #8
 800022e:	d1f9      	bne.n	8000224 <clk+0x9c>
G:\OneDrive - knu.ac.kr\PROJECT\2018-09-08_JSKWON\09_lecture\2021-04-28_Embedded_System_Design\2_SRC\01_blink_int/main.c:27
	
	RCC_CFGR |= (1<<12) | (1<<10); // set APB1 div 4
 8000230:	4b08      	ldr	r3, [pc, #32]	; (8000254 <clk+0xcc>)
 8000232:	689b      	ldr	r3, [r3, #8]
 8000234:	4a07      	ldr	r2, [pc, #28]	; (8000254 <clk+0xcc>)
 8000236:	f443 53a0 	orr.w	r3, r3, #5120	; 0x1400
 800023a:	6093      	str	r3, [r2, #8]
G:\OneDrive - knu.ac.kr\PROJECT\2018-09-08_JSKWON\09_lecture\2021-04-28_Embedded_System_Design\2_SRC\01_blink_int/main.c:28
	RCC_CFGR |= (1<<15); // set APB2 div2	
 800023c:	4b05      	ldr	r3, [pc, #20]	; (8000254 <clk+0xcc>)
 800023e:	689b      	ldr	r3, [r3, #8]
 8000240:	4a04      	ldr	r2, [pc, #16]	; (8000254 <clk+0xcc>)
 8000242:	f443 4300 	orr.w	r3, r3, #32768	; 0x8000
 8000246:	6093      	str	r3, [r2, #8]
G:\OneDrive - knu.ac.kr\PROJECT\2018-09-08_JSKWON\09_lecture\2021-04-28_Embedded_System_Design\2_SRC\01_blink_int/main.c:29
}
 8000248:	bf00      	nop
 800024a:	46bd      	mov	sp, r7
 800024c:	f85d 7b04 	ldr.w	r7, [sp], #4
 8000250:	4770      	bx	lr
 8000252:	bf00      	nop
 8000254:	40023800 	andmi	r3, r2, r0, lsl #16
 8000258:	40023c00 	andmi	r3, r2, r0, lsl #24

0800025c <EXTI0_IRQHandler>:
EXTI0_IRQHandler():
G:\OneDrive - knu.ac.kr\PROJECT\2018-09-08_JSKWON\09_lecture\2021-04-28_Embedded_System_Design\2_SRC\01_blink_int/main.c:31

void EXTI0_IRQHandler() {
 800025c:	b480      	push	{r7}
 800025e:	b083      	sub	sp, #12
 8000260:	af00      	add	r7, sp, #0
G:\OneDrive - knu.ac.kr\PROJECT\2018-09-08_JSKWON\09_lecture\2021-04-28_Embedded_System_Design\2_SRC\01_blink_int/main.c:32
    volatile int a = 2;
 8000262:	2302      	movs	r3, #2
 8000264:	607b      	str	r3, [r7, #4]
G:\OneDrive - knu.ac.kr\PROJECT\2018-09-08_JSKWON\09_lecture\2021-04-28_Embedded_System_Design\2_SRC\01_blink_int/main.c:35

    //GPIOD_ODR ^= 1 << 13;
    GPIOD_ODR ^= a;
 8000266:	687a      	ldr	r2, [r7, #4]
 8000268:	4b0e      	ldr	r3, [pc, #56]	; (80002a4 <EXTI0_IRQHandler+0x48>)
 800026a:	695b      	ldr	r3, [r3, #20]
 800026c:	4611      	mov	r1, r2
 800026e:	4a0d      	ldr	r2, [pc, #52]	; (80002a4 <EXTI0_IRQHandler+0x48>)
 8000270:	404b      	eors	r3, r1
 8000272:	6153      	str	r3, [r2, #20]
G:\OneDrive - knu.ac.kr\PROJECT\2018-09-08_JSKWON\09_lecture\2021-04-28_Embedded_System_Design\2_SRC\01_blink_int/main.c:36
    GPIOD_ODR ^= 1 << 14;
 8000274:	4b0b      	ldr	r3, [pc, #44]	; (80002a4 <EXTI0_IRQHandler+0x48>)
 8000276:	695b      	ldr	r3, [r3, #20]
 8000278:	4a0a      	ldr	r2, [pc, #40]	; (80002a4 <EXTI0_IRQHandler+0x48>)
 800027a:	f483 4380 	eor.w	r3, r3, #16384	; 0x4000
 800027e:	6153      	str	r3, [r2, #20]
G:\OneDrive - knu.ac.kr\PROJECT\2018-09-08_JSKWON\09_lecture\2021-04-28_Embedded_System_Design\2_SRC\01_blink_int/main.c:37
    GPIOD_ODR ^= 1 << 15;
 8000280:	4b08      	ldr	r3, [pc, #32]	; (80002a4 <EXTI0_IRQHandler+0x48>)
 8000282:	695b      	ldr	r3, [r3, #20]
 8000284:	4a07      	ldr	r2, [pc, #28]	; (80002a4 <EXTI0_IRQHandler+0x48>)
 8000286:	f483 4300 	eor.w	r3, r3, #32768	; 0x8000
 800028a:	6153      	str	r3, [r2, #20]
G:\OneDrive - knu.ac.kr\PROJECT\2018-09-08_JSKWON\09_lecture\2021-04-28_Embedded_System_Design\2_SRC\01_blink_int/main.c:39

    EXTI_PR |= 1<<0;    // clear pending bit for EXTI0
 800028c:	4b06      	ldr	r3, [pc, #24]	; (80002a8 <EXTI0_IRQHandler+0x4c>)
 800028e:	695b      	ldr	r3, [r3, #20]
 8000290:	4a05      	ldr	r2, [pc, #20]	; (80002a8 <EXTI0_IRQHandler+0x4c>)
 8000292:	f043 0301 	orr.w	r3, r3, #1
 8000296:	6153      	str	r3, [r2, #20]
G:\OneDrive - knu.ac.kr\PROJECT\2018-09-08_JSKWON\09_lecture\2021-04-28_Embedded_System_Design\2_SRC\01_blink_int/main.c:40
}
 8000298:	bf00      	nop
 800029a:	370c      	adds	r7, #12
 800029c:	46bd      	mov	sp, r7
 800029e:	f85d 7b04 	ldr.w	r7, [sp], #4
 80002a2:	4770      	bx	lr
 80002a4:	40020c00 	andmi	r0, r2, r0, lsl #24
 80002a8:	40013c00 	andmi	r3, r1, r0, lsl #24

080002ac <main>:
main():
G:\OneDrive - knu.ac.kr\PROJECT\2018-09-08_JSKWON\09_lecture\2021-04-28_Embedded_System_Design\2_SRC\01_blink_int/main.c:43

int main (void)
{
 80002ac:	b580      	push	{r7, lr}
 80002ae:	af00      	add	r7, sp, #0
G:\OneDrive - knu.ac.kr\PROJECT\2018-09-08_JSKWON\09_lecture\2021-04-28_Embedded_System_Design\2_SRC\01_blink_int/main.c:44
	clk();
 80002b0:	f7ff ff6a 	bl	8000188 <clk>
G:\OneDrive - knu.ac.kr\PROJECT\2018-09-08_JSKWON\09_lecture\2021-04-28_Embedded_System_Design\2_SRC\01_blink_int/main.c:46
	
	RCC_CFGR |= 0x04600000;
 80002b4:	4b2f      	ldr	r3, [pc, #188]	; (8000374 <main+0xc8>)
 80002b6:	689b      	ldr	r3, [r3, #8]
 80002b8:	4a2e      	ldr	r2, [pc, #184]	; (8000374 <main+0xc8>)
 80002ba:	f043 638c 	orr.w	r3, r3, #73400320	; 0x4600000
 80002be:	6093      	str	r3, [r2, #8]
G:\OneDrive - knu.ac.kr\PROJECT\2018-09-08_JSKWON\09_lecture\2021-04-28_Embedded_System_Design\2_SRC\01_blink_int/main.c:49

    /* PORT A */
	RCC_AHB1ENR  |= 1<<0; //RCC clock enable register	
 80002c0:	4b2c      	ldr	r3, [pc, #176]	; (8000374 <main+0xc8>)
 80002c2:	6b1b      	ldr	r3, [r3, #48]	; 0x30
 80002c4:	4a2b      	ldr	r2, [pc, #172]	; (8000374 <main+0xc8>)
 80002c6:	f043 0301 	orr.w	r3, r3, #1
 80002ca:	6313      	str	r3, [r2, #48]	; 0x30
G:\OneDrive - knu.ac.kr\PROJECT\2018-09-08_JSKWON\09_lecture\2021-04-28_Embedded_System_Design\2_SRC\01_blink_int/main.c:50
    GPIOA_MODER  |= 0<<0; // input mode
 80002cc:	4b2a      	ldr	r3, [pc, #168]	; (8000378 <main+0xcc>)
 80002ce:	4a2a      	ldr	r2, [pc, #168]	; (8000378 <main+0xcc>)
 80002d0:	681b      	ldr	r3, [r3, #0]
 80002d2:	6013      	str	r3, [r2, #0]
G:\OneDrive - knu.ac.kr\PROJECT\2018-09-08_JSKWON\09_lecture\2021-04-28_Embedded_System_Design\2_SRC\01_blink_int/main.c:51
    GPIOA_OTYPER |= 0<<0; // output push-pull
 80002d4:	4b28      	ldr	r3, [pc, #160]	; (8000378 <main+0xcc>)
 80002d6:	4a28      	ldr	r2, [pc, #160]	; (8000378 <main+0xcc>)
 80002d8:	685b      	ldr	r3, [r3, #4]
 80002da:	6053      	str	r3, [r2, #4]
G:\OneDrive - knu.ac.kr\PROJECT\2018-09-08_JSKWON\09_lecture\2021-04-28_Embedded_System_Design\2_SRC\01_blink_int/main.c:52
    GPIOA_PUPDR  |= 0<<0; // no pull-up, pull-down
 80002dc:	4b26      	ldr	r3, [pc, #152]	; (8000378 <main+0xcc>)
 80002de:	4a26      	ldr	r2, [pc, #152]	; (8000378 <main+0xcc>)
 80002e0:	68db      	ldr	r3, [r3, #12]
 80002e2:	60d3      	str	r3, [r2, #12]
G:\OneDrive - knu.ac.kr\PROJECT\2018-09-08_JSKWON\09_lecture\2021-04-28_Embedded_System_Design\2_SRC\01_blink_int/main.c:55

    /* button intr set */
    SYSCFG_EXTICR1  |= 0<<0; // EXTI0 connect to PA0
 80002e4:	4b25      	ldr	r3, [pc, #148]	; (800037c <main+0xd0>)
 80002e6:	4a25      	ldr	r2, [pc, #148]	; (800037c <main+0xd0>)
 80002e8:	689b      	ldr	r3, [r3, #8]
 80002ea:	6093      	str	r3, [r2, #8]
G:\OneDrive - knu.ac.kr\PROJECT\2018-09-08_JSKWON\09_lecture\2021-04-28_Embedded_System_Design\2_SRC\01_blink_int/main.c:56
    EXTI_IMR        |= 1<<0; // Mask EXTI0
 80002ec:	4b24      	ldr	r3, [pc, #144]	; (8000380 <main+0xd4>)
 80002ee:	681b      	ldr	r3, [r3, #0]
 80002f0:	4a23      	ldr	r2, [pc, #140]	; (8000380 <main+0xd4>)
 80002f2:	f043 0301 	orr.w	r3, r3, #1
 80002f6:	6013      	str	r3, [r2, #0]
G:\OneDrive - knu.ac.kr\PROJECT\2018-09-08_JSKWON\09_lecture\2021-04-28_Embedded_System_Design\2_SRC\01_blink_int/main.c:57
    EXTI_RTSR       |= 1<<0; // rising edge trigger enable
 80002f8:	4b21      	ldr	r3, [pc, #132]	; (8000380 <main+0xd4>)
 80002fa:	689b      	ldr	r3, [r3, #8]
 80002fc:	4a20      	ldr	r2, [pc, #128]	; (8000380 <main+0xd4>)
 80002fe:	f043 0301 	orr.w	r3, r3, #1
 8000302:	6093      	str	r3, [r2, #8]
G:\OneDrive - knu.ac.kr\PROJECT\2018-09-08_JSKWON\09_lecture\2021-04-28_Embedded_System_Design\2_SRC\01_blink_int/main.c:58
    EXTI_FTSR       |= 0<<0; // falling edge trigger disable
 8000304:	4b1e      	ldr	r3, [pc, #120]	; (8000380 <main+0xd4>)
 8000306:	4a1e      	ldr	r2, [pc, #120]	; (8000380 <main+0xd4>)
 8000308:	68db      	ldr	r3, [r3, #12]
 800030a:	60d3      	str	r3, [r2, #12]
G:\OneDrive - knu.ac.kr\PROJECT\2018-09-08_JSKWON\09_lecture\2021-04-28_Embedded_System_Design\2_SRC\01_blink_int/main.c:59
    NVIC_ISER0      |= 1<<6; // enable EXTI0 interrupt
 800030c:	4b1d      	ldr	r3, [pc, #116]	; (8000384 <main+0xd8>)
 800030e:	681b      	ldr	r3, [r3, #0]
 8000310:	4a1c      	ldr	r2, [pc, #112]	; (8000384 <main+0xd8>)
 8000312:	f043 0340 	orr.w	r3, r3, #64	; 0x40
 8000316:	6013      	str	r3, [r2, #0]
G:\OneDrive - knu.ac.kr\PROJECT\2018-09-08_JSKWON\09_lecture\2021-04-28_Embedded_System_Design\2_SRC\01_blink_int/main.c:62
	
	/* PORT D */
	RCC_AHB1ENR  |= 1<<3;		// PORTD enable
 8000318:	4b16      	ldr	r3, [pc, #88]	; (8000374 <main+0xc8>)
 800031a:	6b1b      	ldr	r3, [r3, #48]	; 0x30
 800031c:	4a15      	ldr	r2, [pc, #84]	; (8000374 <main+0xc8>)
 800031e:	f043 0308 	orr.w	r3, r3, #8
 8000322:	6313      	str	r3, [r2, #48]	; 0x30
G:\OneDrive - knu.ac.kr\PROJECT\2018-09-08_JSKWON\09_lecture\2021-04-28_Embedded_System_Design\2_SRC\01_blink_int/main.c:63
	GPIOD_MODER  |= 1<<24;		// PORTD 12 general output mode
 8000324:	4b18      	ldr	r3, [pc, #96]	; (8000388 <main+0xdc>)
 8000326:	681b      	ldr	r3, [r3, #0]
 8000328:	4a17      	ldr	r2, [pc, #92]	; (8000388 <main+0xdc>)
 800032a:	f043 7380 	orr.w	r3, r3, #16777216	; 0x1000000
 800032e:	6013      	str	r3, [r2, #0]
G:\OneDrive - knu.ac.kr\PROJECT\2018-09-08_JSKWON\09_lecture\2021-04-28_Embedded_System_Design\2_SRC\01_blink_int/main.c:64
	GPIOD_MODER  |= 1<<26;		// PORTD 13 general output mode
 8000330:	4b15      	ldr	r3, [pc, #84]	; (8000388 <main+0xdc>)
 8000332:	681b      	ldr	r3, [r3, #0]
 8000334:	4a14      	ldr	r2, [pc, #80]	; (8000388 <main+0xdc>)
 8000336:	f043 6380 	orr.w	r3, r3, #67108864	; 0x4000000
 800033a:	6013      	str	r3, [r2, #0]
G:\OneDrive - knu.ac.kr\PROJECT\2018-09-08_JSKWON\09_lecture\2021-04-28_Embedded_System_Design\2_SRC\01_blink_int/main.c:65
	GPIOD_MODER  |= 1<<28;		// PORTD 14 general output mode
 800033c:	4b12      	ldr	r3, [pc, #72]	; (8000388 <main+0xdc>)
 800033e:	681b      	ldr	r3, [r3, #0]
 8000340:	4a11      	ldr	r2, [pc, #68]	; (8000388 <main+0xdc>)
 8000342:	f043 5380 	orr.w	r3, r3, #268435456	; 0x10000000
 8000346:	6013      	str	r3, [r2, #0]
G:\OneDrive - knu.ac.kr\PROJECT\2018-09-08_JSKWON\09_lecture\2021-04-28_Embedded_System_Design\2_SRC\01_blink_int/main.c:66
	GPIOD_MODER  |= 1<<30;		// PORTD 15 general output mode
 8000348:	4b0f      	ldr	r3, [pc, #60]	; (8000388 <main+0xdc>)
 800034a:	681b      	ldr	r3, [r3, #0]
 800034c:	4a0e      	ldr	r2, [pc, #56]	; (8000388 <main+0xdc>)
 800034e:	f043 4380 	orr.w	r3, r3, #1073741824	; 0x40000000
 8000352:	6013      	str	r3, [r2, #0]
G:\OneDrive - knu.ac.kr\PROJECT\2018-09-08_JSKWON\09_lecture\2021-04-28_Embedded_System_Design\2_SRC\01_blink_int/main.c:67
	GPIOD_OTYPER |= 0x00000000;
 8000354:	4b0c      	ldr	r3, [pc, #48]	; (8000388 <main+0xdc>)
 8000356:	4a0c      	ldr	r2, [pc, #48]	; (8000388 <main+0xdc>)
 8000358:	685b      	ldr	r3, [r3, #4]
 800035a:	6053      	str	r3, [r2, #4]
G:\OneDrive - knu.ac.kr\PROJECT\2018-09-08_JSKWON\09_lecture\2021-04-28_Embedded_System_Design\2_SRC\01_blink_int/main.c:68
	GPIOD_PUPDR	 |= 0x00000000;
 800035c:	4b0a      	ldr	r3, [pc, #40]	; (8000388 <main+0xdc>)
 800035e:	4a0a      	ldr	r2, [pc, #40]	; (8000388 <main+0xdc>)
 8000360:	68db      	ldr	r3, [r3, #12]
 8000362:	60d3      	str	r3, [r2, #12]
G:\OneDrive - knu.ac.kr\PROJECT\2018-09-08_JSKWON\09_lecture\2021-04-28_Embedded_System_Design\2_SRC\01_blink_int/main.c:70
	
	GPIOD_ODR |= 1<<12;
 8000364:	4b08      	ldr	r3, [pc, #32]	; (8000388 <main+0xdc>)
 8000366:	695b      	ldr	r3, [r3, #20]
 8000368:	4a07      	ldr	r2, [pc, #28]	; (8000388 <main+0xdc>)
 800036a:	f443 5380 	orr.w	r3, r3, #4096	; 0x1000
 800036e:	6153      	str	r3, [r2, #20]
G:\OneDrive - knu.ac.kr\PROJECT\2018-09-08_JSKWON\09_lecture\2021-04-28_Embedded_System_Design\2_SRC\01_blink_int/main.c:72 (discriminator 1)

	while(1) {
 8000370:	e7fe      	b.n	8000370 <main+0xc4>
 8000372:	bf00      	nop
 8000374:	40023800 	andmi	r3, r2, r0, lsl #16
 8000378:	40020000 	andmi	r0, r2, r0
 800037c:	40013800 	andmi	r3, r1, r0, lsl #16
 8000380:	40013c00 	andmi	r3, r1, r0, lsl #24
 8000384:	e000e100 	and	lr, r0, r0, lsl #2
 8000388:	40020c00 	andmi	r0, r2, r0, lsl #24

0800038c <Reset_Handler>:
Reset_Handler():
 800038c:	2100      	movs	r1, #0
 800038e:	e003      	b.n	8000398 <LoopCopyDataInit>

08000390 <CopyDataInit>:
CopyDataInit():
 8000390:	4b09      	ldr	r3, [pc, #36]	; (80003b8 <LoopFillZerobss+0xc>)
 8000392:	585b      	ldr	r3, [r3, r1]
 8000394:	5043      	str	r3, [r0, r1]
 8000396:	3104      	adds	r1, #4

08000398 <LoopCopyDataInit>:
LoopCopyDataInit():
 8000398:	4808      	ldr	r0, [pc, #32]	; (80003bc <LoopFillZerobss+0x10>)
 800039a:	4b09      	ldr	r3, [pc, #36]	; (80003c0 <LoopFillZerobss+0x14>)
 800039c:	1842      	adds	r2, r0, r1
 800039e:	429a      	cmp	r2, r3
 80003a0:	d3f6      	bcc.n	8000390 <CopyDataInit>
 80003a2:	4a08      	ldr	r2, [pc, #32]	; (80003c4 <LoopFillZerobss+0x18>)
 80003a4:	e002      	b.n	80003ac <LoopFillZerobss>

080003a6 <FillZerobss>:
FillZerobss():
 80003a6:	2300      	movs	r3, #0
 80003a8:	6013      	str	r3, [r2, #0]
 80003aa:	3204      	adds	r2, #4

080003ac <LoopFillZerobss>:
LoopFillZerobss():
 80003ac:	4b06      	ldr	r3, [pc, #24]	; (80003c8 <LoopFillZerobss+0x1c>)
 80003ae:	429a      	cmp	r2, r3
 80003b0:	d3f9      	bcc.n	80003a6 <FillZerobss>
 80003b2:	f7ff ff7b 	bl	80002ac <main>
 80003b6:	03e40000 	mvneq	r0, #0
 80003ba:	00000800 	andeq	r0, r0, r0, lsl #16
 80003be:	00002000 	andeq	r2, r0, r0
 80003c2:	00002000 	andeq	r2, r0, r0
 80003c6:	00002000 	andeq	r2, r0, r0
 80003ca:	 	ldrblt	r2, [r8, #0]!

080003cc <_init>:
_init():
 80003cc:	b5f8      	push	{r3, r4, r5, r6, r7, lr}
 80003ce:	bf00      	nop
 80003d0:	bcf8      	pop	{r3, r4, r5, r6, r7}
 80003d2:	bc08      	pop	{r3}
 80003d4:	469e      	mov	lr, r3
 80003d6:	4770      	bx	lr

080003d8 <_fini>:
_fini():
 80003d8:	b5f8      	push	{r3, r4, r5, r6, r7, lr}
 80003da:	bf00      	nop
 80003dc:	bcf8      	pop	{r3, r4, r5, r6, r7}
 80003de:	bc08      	pop	{r3}
 80003e0:	469e      	mov	lr, r3
 80003e2:	4770      	bx	lr
